target datalayout = "e-m:e-p270:32:32-p271:32:32-p272:64:64-i64:64-i128:128-f80:128-n8:16:32:64-S128"
target triple = "x86_64-pc-linux-gnu"

%struct.aiString = type { i32, [1024 x i8] }

@.str.114 = private unnamed_addr constant [51 x i8] c"aiString::length is too large (%u, maximum is %lu)\00", align 1
@.str.115 = private unnamed_addr constant [66 x i8] c"aiString::data is invalid: the terminal zero is at a wrong offset\00", align 1
@.str.116 = private unnamed_addr constant [58 x i8] c"aiString::data is invalid. There is no terminal character\00", align 1

; Function Attrs: mustprogress uwtable
define hidden void @_ZN6Assimp17ValidateDSProcess8ValidateEPK8aiString(ptr noundef nonnull align 8 dereferenceable(32) %0, ptr noundef %1) #5 align 2 {
  %3 = alloca ptr, align 8
  %4 = alloca ptr, align 8
  %5 = alloca ptr, align 8
  store ptr %0, ptr %3, align 8
  store ptr %1, ptr %4, align 8
  %6 = load ptr, ptr %3, align 8
  %7 = load ptr, ptr %4, align 8
  %8 = getelementptr inbounds nuw %struct.aiString, ptr %7, i32 0, i32 0
  %9 = load i32, ptr %8, align 4
  %10 = zext i32 %9 to i64
  %11 = icmp ugt i64 %10, 1024
  br i1 %11, label %12, label %16

12:                                               ; preds = %2
  %13 = load ptr, ptr %4, align 8
  %14 = getelementptr inbounds nuw %struct.aiString, ptr %13, i32 0, i32 0
  %15 = load i32, ptr %14, align 4
  call void (ptr, ptr, ...) @_ZN6Assimp17ValidateDSProcess11ReportErrorEPKcz(ptr noundef nonnull align 8 dereferenceable(32) %6, ptr noundef @.str.114, i32 noundef %15, i64 noundef 1024) #20
  unreachable

16:                                               ; preds = %2
  call void @llvm.lifetime.start.p0(i64 8, ptr %5) #19
  %17 = load ptr, ptr %4, align 8
  %18 = getelementptr inbounds nuw %struct.aiString, ptr %17, i32 0, i32 1
  %19 = getelementptr inbounds [1024 x i8], ptr %18, i64 0, i64 0
  store ptr %19, ptr %5, align 8
  br label %20

20:                                               ; preds = %49, %16
  br label %21

21:                                               ; preds = %20
  %22 = load ptr, ptr %5, align 8
  %23 = load i8, ptr %22, align 1
  %24 = sext i8 %23 to i32
  %25 = icmp eq i32 0, %24
  br i1 %25, label %26, label %41

26:                                               ; preds = %21
  %27 = load ptr, ptr %4, align 8
  %28 = getelementptr inbounds nuw %struct.aiString, ptr %27, i32 0, i32 0
  %29 = load i32, ptr %28, align 4
  %30 = load ptr, ptr %5, align 8
  %31 = load ptr, ptr %4, align 8
  %32 = getelementptr inbounds nuw %struct.aiString, ptr %31, i32 0, i32 1
  %33 = getelementptr inbounds [1024 x i8], ptr %32, i64 0, i64 0
  %34 = ptrtoint ptr %30 to i64
  %35 = ptrtoint ptr %33 to i64
  %36 = sub i64 %34, %35
  %37 = trunc i64 %36 to i32
  %38 = icmp ne i32 %29, %37
  br i1 %38, label %39, label %40

39:                                               ; preds = %26
  call void (ptr, ptr, ...) @_ZN6Assimp17ValidateDSProcess11ReportErrorEPKcz(ptr noundef nonnull align 8 dereferenceable(32) %6, ptr noundef @.str.115) #20
  unreachable

40:                                               ; preds = %26
  br label %52

41:                                               ; preds = %21
  %42 = load ptr, ptr %5, align 8
  %43 = load ptr, ptr %4, align 8
  %44 = getelementptr inbounds nuw %struct.aiString, ptr %43, i32 0, i32 1
  %45 = getelementptr inbounds nuw [1024 x i8], ptr %44, i64 0, i64 1024
  %46 = icmp uge ptr %42, %45
  br i1 %46, label %47, label %48

47:                                               ; preds = %41
  call void (ptr, ptr, ...) @_ZN6Assimp17ValidateDSProcess11ReportErrorEPKcz(ptr noundef nonnull align 8 dereferenceable(32) %6, ptr noundef @.str.116) #20
  unreachable

48:                                               ; preds = %41
  br label %49

49:                                               ; preds = %48
  %50 = load ptr, ptr %5, align 8
  %51 = getelementptr inbounds nuw i8, ptr %50, i32 1
  store ptr %51, ptr %5, align 8
  br label %20, !llvm.loop !24

52:                                               ; preds = %40
  call void @llvm.lifetime.end.p0(i64 8, ptr %5) #19
  ret void
}