; Function Attrs: mustprogress uwtable
define hidden void @_ZN6Assimp17ValidateDSProcess8ValidateEPK8aiString(ptr noundef nonnull readnone align 8 captures(none) dereferenceable(32) %0, ptr noundef readonly captures(none) %1) local_unnamed_addr #7 align 2 {
  %3 = load i32, ptr %1, align 4
  %4 = icmp ugt i32 %3, 1024
  br i1 %4, label %7, label %.preheader

.preheader:                                       ; preds = %2
  %.0.ptr14 = getelementptr inbounds nuw i8, ptr %1, i64 4
  %5 = load i8, ptr %.0.ptr14, align 1
  %6 = icmp eq i8 %5, 0
  br i1 %6, label %._crit_edge, label %.lr.ph

7:                                                ; preds = %2
  tail call void (ptr, ptr, ...) @_ZN6Assimp17ValidateDSProcess11ReportErrorEPKcz(ptr nonnull align 8 poison, ptr noundef nonnull @.str.114, i32 noundef %3, i64 noundef 1024) #24
  unreachable

._crit_edge.loopexit:                             ; preds = %12
  %8 = trunc i64 %.0.add to i32
  %9 = add nsw i32 %8, -4
  br label %._crit_edge

._crit_edge:                                      ; preds = %._crit_edge.loopexit, %.preheader
  %.0.idx.lcssa = phi i32 [ 0, %.preheader ], [ %9, %._crit_edge.loopexit ]
  %.not12 = icmp eq i32 %3, %.0.idx.lcssa
  br i1 %.not12, label %15, label %10

10:                                               ; preds = %._crit_edge
  tail call void (ptr, ptr, ...) @_ZN6Assimp17ValidateDSProcess11ReportErrorEPKcz(ptr nonnull align 8 poison, ptr noundef nonnull @.str.115) #24
  unreachable

.lr.ph:                                           ; preds = %.preheader, %12
  %.0.idx15 = phi i64 [ %.0.add, %12 ], [ 4, %.preheader ]
  %exitcond.not = icmp eq i64 %.0.idx15, 1028
  br i1 %exitcond.not, label %11, label %12

11:                                               ; preds = %.lr.ph
  tail call void (ptr, ptr, ...) @_ZN6Assimp17ValidateDSProcess11ReportErrorEPKcz(ptr nonnull align 8 poison, ptr noundef nonnull @.str.116) #24
  unreachable

12:                                               ; preds = %.lr.ph
  %.0.add = add nuw nsw i64 %.0.idx15, 1
  %.0.ptr = getelementptr inbounds nuw i8, ptr %1, i64 %.0.add
  %13 = load i8, ptr %.0.ptr, align 1
  %14 = icmp eq i8 %13, 0
  br i1 %14, label %._crit_edge.loopexit, label %.lr.ph, !llvm.loop !8

15:                                               ; preds = %._crit_edge
  ret void
}